target datalayout = "e-m:e-p270:32:32-p271:32:32-p272:64:64-i64:64-i128:128-f80:128-n8:16:32:64-S128"
target triple = "x86_64-pc-linux-gnu"

%"class.icu_77::UnicodeString" = type { %"class.icu_77::Replaceable", %"union.icu_77::UnicodeString::StackBufferOrFields" }
%"class.icu_77::Replaceable" = type { %"class.icu_77::UObject" }
%"class.icu_77::UObject" = type { ptr }
%"union.icu_77::UnicodeString::StackBufferOrFields" = type { %struct.anon.0, [32 x i8] }
%struct.anon.0 = type { i16, i32, i32, ptr }
%"class.icu_77::SimpleDateFormat" = type { %"class.icu_77::DateFormat", %"class.icu_77::UnicodeString", %"class.icu_77::UnicodeString", %"class.icu_77::UnicodeString", %"class.icu_77::Locale", ptr, ptr, double, i8, i8, i8, i32, ptr, ptr, i8, ptr }
%"class.icu_77::DateFormat" = type { %"class.icu_77::Format", ptr, ptr, %"class.icu_77::EnumSet", i32 }
%"class.icu_77::Format" = type { %"class.icu_77::UObject", ptr, ptr }
%"class.icu_77::EnumSet" = type { i32 }
%"class.icu_77::Locale" = type <{ %"class.icu_77::UObject", [12 x i8], [6 x i8], [4 x i8], [2 x i8], i32, [4 x i8], ptr, [157 x i8], [3 x i8], ptr, i8, [7 x i8] }>

; Function Attrs: mustprogress uwtable
define void @_ZN6icu_7716SimpleDateFormat17setTimeZoneFormatERKNS_14TimeZoneFormatE(ptr noundef nonnull align 8 dereferenceable(528) %0, ptr noundef nonnull align 8 dereferenceable(1024) %1) unnamed_addr #1 align 2 personality ptr @__gxx_personality_v0 {
  %3 = alloca ptr, align 8
  %4 = alloca ptr, align 8
  %5 = alloca ptr, align 8
  %6 = alloca i1, align 1
  %7 = alloca ptr, align 8
  %8 = alloca i32, align 4
  store ptr %0, ptr %3, align 8, !tbaa !23
  store ptr %1, ptr %4, align 8, !tbaa !100
  %9 = load ptr, ptr %3, align 8
  %10 = getelementptr inbounds nuw %"class.icu_77::SimpleDateFormat", ptr %9, i32 0, i32 6
  %11 = load ptr, ptr %10, align 8, !tbaa !66
  %12 = icmp eq ptr %11, null
  br i1 %12, label %17, label %13

13:                                               ; preds = %2
  %14 = load ptr, ptr %11, align 8, !tbaa !63
  %15 = getelementptr inbounds ptr, ptr %14, i64 1
  %16 = load ptr, ptr %15, align 8
  call void %16(ptr noundef nonnull align 8 dereferenceable(1024) %11) #12
  br label %17

17:                                               ; preds = %13, %2
  %18 = call noundef ptr @_ZN6icu_777UMemorynwEm(i64 noundef 1024) #12
  %19 = icmp eq ptr %18, null
  store i1 false, ptr %6, align 1
  br i1 %19, label %23, label %20

20:                                               ; preds = %17
  store ptr %18, ptr %5, align 8
  store i1 true, ptr %6, align 1
  %21 = load ptr, ptr %4, align 8, !tbaa !100
  invoke void @_ZN6icu_7714TimeZoneFormatC1ERKS0_(ptr noundef nonnull align 8 dereferenceable(1024) %18, ptr noundef nonnull align 8 dereferenceable(1024) %21)
          to label %22 unwind label %26

22:                                               ; preds = %20
  br label %23

23:                                               ; preds = %22, %17
  %24 = phi ptr [ %18, %22 ], [ null, %17 ]
  %25 = getelementptr inbounds nuw %"class.icu_77::SimpleDateFormat", ptr %9, i32 0, i32 6
  store ptr %24, ptr %25, align 8, !tbaa !66
  ret void

26:                                               ; preds = %20
  %27 = landingpad { ptr, i32 }
          cleanup
  %28 = extractvalue { ptr, i32 } %27, 0
  store ptr %28, ptr %7, align 8
  %29 = extractvalue { ptr, i32 } %27, 1
  store i32 %29, ptr %8, align 4
  %30 = load i1, ptr %6, align 1
  br i1 %30, label %31, label %33

31:                                               ; preds = %26
  %32 = load ptr, ptr %5, align 8
  call void @_ZN6icu_777UMemorydlEPv(ptr noundef %32) #12
  br label %33

33:                                               ; preds = %31, %26
  br label %34

34:                                               ; preds = %33
  %35 = load ptr, ptr %7, align 8
  %36 = load i32, ptr %8, align 4
  %37 = insertvalue { ptr, i32 } poison, ptr %35, 0
  %38 = insertvalue { ptr, i32 } %37, i32 %36, 1
  resume { ptr, i32 } %38
}