; Function Attrs: mustprogress uwtable
define void @_ZN6icu_7716SimpleDateFormat17setTimeZoneFormatERKNS_14TimeZoneFormatE(ptr noundef nonnull align 8 captures(none) dereferenceable(528) %0, ptr noundef nonnull align 8 dereferenceable(1024) %1) unnamed_addr #1 align 2 personality ptr @__gxx_personality_v0 {
  %3 = getelementptr inbounds nuw i8, ptr %0, i64 472
  %4 = load ptr, ptr %3, align 8, !tbaa !48
  %5 = icmp eq ptr %4, null
  br i1 %5, label %10, label %6

6:                                                ; preds = %2
  %7 = load ptr, ptr %4, align 8, !tbaa !44
  %8 = getelementptr inbounds nuw i8, ptr %7, i64 8
  %9 = load ptr, ptr %8, align 8
  tail call void %9(ptr noundef nonnull align 8 dereferenceable(1024) %4) #23
  br label %10

10:                                               ; preds = %6, %2
  %11 = tail call noundef ptr @_ZN6icu_777UMemorynwEm(i64 noundef 1024) #23
  %12 = icmp eq ptr %11, null
  br i1 %12, label %14, label %13

13:                                               ; preds = %10
  invoke void @_ZN6icu_7714TimeZoneFormatC1ERKS0_(ptr noundef nonnull align 8 dereferenceable(1024) %11, ptr noundef nonnull align 8 dereferenceable(1024) %1)
          to label %14 unwind label %15

14:                                               ; preds = %13, %10
  store ptr %11, ptr %3, align 8, !tbaa !48
  ret void

15:                                               ; preds = %13
  %16 = landingpad { ptr, i32 }
          cleanup
  tail call void @_ZN6icu_777UMemorydlEPv(ptr noundef nonnull %11) #23
  resume { ptr, i32 } %16
}